target datalayout = "e-m:e-p270:32:32-p271:32:32-p272:64:64-i64:64-i128:128-f80:128-n8:16:32:64-S128"
target triple = "x86_64-pc-linux-gnu"

%struct.ipmi_netfn_root = type { ptr, ptr, i32 }
%struct.ipmi_netfn_handler = type { ptr, ptr, i32, ptr, ptr, i32 }

@ipmi_cmd_tab = internal global [32 x %struct.ipmi_netfn_root] zeroinitializer, align 16

; Function Attrs: null_pointer_is_valid sspstrong uwtable
define hidden void @ipmi_register_netfn_cmdtab(i32 noundef %0, i32 noundef %1, ptr noundef %2, i32 noundef %3, ptr noundef %4, ptr noundef %5, i32 noundef %6) #0 {
  %8 = alloca i32, align 4
  %9 = alloca i32, align 4
  %10 = alloca ptr, align 8
  %11 = alloca i32, align 4
  %12 = alloca ptr, align 8
  %13 = alloca ptr, align 8
  %14 = alloca i32, align 4
  %15 = alloca ptr, align 8
  %16 = alloca ptr, align 8
  %17 = alloca i32, align 4
  store i32 %0, ptr %8, align 4
  store i32 %1, ptr %9, align 4
  store ptr %2, ptr %10, align 8
  store i32 %3, ptr %11, align 4
  store ptr %4, ptr %12, align 8
  store ptr %5, ptr %13, align 8
  store i32 %6, ptr %14, align 4
  call void @llvm.lifetime.start.p0(i64 8, ptr %15) #10
  call void @llvm.lifetime.start.p0(i64 8, ptr %16) #10
  %18 = load i32, ptr %8, align 4
  %19 = lshr i32 %18, 1
  store i32 %19, ptr %8, align 4
  %20 = load i32, ptr %8, align 4
  %21 = icmp uge i32 %20, 32
  br i1 %21, label %22, label %23

22:                                               ; preds = %7
  store i32 1, ptr %17, align 4
  br label %59

23:                                               ; preds = %7
  %24 = load i32, ptr %8, align 4
  %25 = zext i32 %24 to i64
  %26 = getelementptr [32 x %struct.ipmi_netfn_root], ptr @ipmi_cmd_tab, i64 0, i64 %25
  store ptr %26, ptr %15, align 8
  %27 = load ptr, ptr %15, align 8
  %28 = getelementptr inbounds nuw %struct.ipmi_netfn_root, ptr %27, i32 0, i32 2
  %29 = load i32, ptr %28, align 8
  %30 = load i32, ptr %11, align 4
  %31 = icmp ne i32 %29, %30
  br i1 %31, label %32, label %33

32:                                               ; preds = %23
  store i32 1, ptr %17, align 4
  br label %59

33:                                               ; preds = %23
  %34 = call ptr @wmem_epan_scope()
  %35 = call noalias ptr @wmem_alloc(ptr noundef %34, i64 noundef 48) #11
  store ptr %35, ptr %16, align 8
  %36 = load ptr, ptr %12, align 8
  %37 = load ptr, ptr %16, align 8
  %38 = getelementptr inbounds nuw %struct.ipmi_netfn_handler, ptr %37, i32 0, i32 1
  store ptr %36, ptr %38, align 8
  %39 = load i32, ptr %9, align 4
  %40 = load ptr, ptr %16, align 8
  %41 = getelementptr inbounds nuw %struct.ipmi_netfn_handler, ptr %40, i32 0, i32 2
  store i32 %39, ptr %41, align 8
  %42 = load ptr, ptr %10, align 8
  %43 = load ptr, ptr %16, align 8
  %44 = getelementptr inbounds nuw %struct.ipmi_netfn_handler, ptr %43, i32 0, i32 3
  store ptr %42, ptr %44, align 8
  %45 = load ptr, ptr %13, align 8
  %46 = load ptr, ptr %16, align 8
  %47 = getelementptr inbounds nuw %struct.ipmi_netfn_handler, ptr %46, i32 0, i32 4
  store ptr %45, ptr %47, align 8
  %48 = load i32, ptr %14, align 4
  %49 = load ptr, ptr %16, align 8
  %50 = getelementptr inbounds nuw %struct.ipmi_netfn_handler, ptr %49, i32 0, i32 5
  store i32 %48, ptr %50, align 8
  %51 = load ptr, ptr %15, align 8
  %52 = getelementptr inbounds nuw %struct.ipmi_netfn_root, ptr %51, i32 0, i32 0
  %53 = load ptr, ptr %52, align 8
  %54 = load ptr, ptr %16, align 8
  %55 = getelementptr inbounds nuw %struct.ipmi_netfn_handler, ptr %54, i32 0, i32 0
  store ptr %53, ptr %55, align 8
  %56 = load ptr, ptr %16, align 8
  %57 = load ptr, ptr %15, align 8
  %58 = getelementptr inbounds nuw %struct.ipmi_netfn_root, ptr %57, i32 0, i32 0
  store ptr %56, ptr %58, align 8
  store i32 0, ptr %17, align 4
  br label %59

59:                                               ; preds = %33, %32, %22
  call void @llvm.lifetime.end.p0(i64 8, ptr %16) #10
  call void @llvm.lifetime.end.p0(i64 8, ptr %15) #10
  %60 = load i32, ptr %17, align 4
  switch i32 %60, label %62 [
    i32 0, label %61
    i32 1, label %61
  ]

61:                                               ; preds = %59, %59
  ret void

62:                                               ; preds = %59
  unreachable
}