; Function Attrs: null_pointer_is_valid sspstrong uwtable
define hidden void @ipmi_register_netfn_cmdtab(i32 noundef %0, i32 noundef %1, ptr noundef %2, i32 noundef %3, ptr noundef %4, ptr noundef %5, i32 noundef %6) local_unnamed_addr #0 {
  %8 = icmp ugt i32 %0, 63
  br i1 %8, label %24, label %9

9:                                                ; preds = %7
  %10 = lshr i32 %0, 1
  %11 = zext nneg i32 %10 to i64
  %12 = getelementptr [32 x %struct.ipmi_netfn_root], ptr @ipmi_cmd_tab, i64 0, i64 %11
  %13 = getelementptr inbounds nuw i8, ptr %12, i64 16
  %14 = load i32, ptr %13, align 8
  %.not = icmp eq i32 %14, %3
  br i1 %.not, label %15, label %24

15:                                               ; preds = %9
  %16 = tail call ptr @wmem_epan_scope()
  %17 = tail call noalias dereferenceable_or_null(48) ptr @wmem_alloc(ptr noundef %16, i64 noundef 48) #14
  %18 = getelementptr inbounds nuw i8, ptr %17, i64 8
  store ptr %4, ptr %18, align 8
  %19 = getelementptr inbounds nuw i8, ptr %17, i64 16
  store i32 %1, ptr %19, align 8
  %20 = getelementptr inbounds nuw i8, ptr %17, i64 24
  store ptr %2, ptr %20, align 8
  %21 = getelementptr inbounds nuw i8, ptr %17, i64 32
  store ptr %5, ptr %21, align 8
  %22 = getelementptr inbounds nuw i8, ptr %17, i64 40
  store i32 %6, ptr %22, align 8
  %23 = load ptr, ptr %12, align 8
  store ptr %23, ptr %17, align 8
  store ptr %17, ptr %12, align 8
  br label %24

24:                                               ; preds = %9, %7, %15
  ret void
}